; Function Attrs: mustprogress nofree norecurse nosync nounwind willreturn memory(read, inaccessiblemem: none) uwtable
define noundef ptr @_ZNK5faiss19OnDiskInvertedLists9get_codesEm(ptr nocapture noundef nonnull readonly align 8 dereferenceable(156) %0, i64 noundef %1) unnamed_addr #1 align 2 {
  %3 = getelementptr inbounds i8, ptr %0, i64 32
  %4 = load ptr, ptr %3, align 8
  %5 = getelementptr inbounds %"struct.faiss::OnDiskOneList", ptr %4, i64 %1, i32 2
  %6 = load i64, ptr %5, align 8
  %7 = icmp eq i64 %6, -1
  %8 = getelementptr inbounds i8, ptr %0, i64 120
  %9 = load ptr, ptr %8, align 8
  %10 = getelementptr inbounds i8, ptr %9, i64 %6
  %.0 = select i1 %7, ptr null, ptr %10
  ret ptr %.0
}